; Function Attrs: mustprogress uwtable
define internal void @_ZN5arrow12_GLOBAL__N_19DebugTrapEPhlRKNS_6StatusE(ptr readnone captures(none) %0, i64 %1, ptr noundef nonnull align 8 dereferenceable(8) %2) #4 personality ptr @__gxx_personality_v0 {
  %4 = alloca %"class.arrow::util::ArrowLog", align 8
  %5 = alloca %"class.std::__cxx11::basic_string", align 8
  call void @llvm.lifetime.start.p0(i64 24, ptr nonnull %4) #32
  call void @_ZN5arrow4util8ArrowLogC1EPKciNS0_13ArrowLogLevelE(ptr noundef nonnull align 8 dereferenceable(17) %4, ptr noundef nonnull @.str, i32 noundef 181, i32 noundef 2)
  call void @llvm.lifetime.start.p0(i64 32, ptr nonnull %5) #32
  invoke void @_ZNK5arrow6Status8ToStringB5cxx11Ev(ptr dead_on_unwind nonnull writable sret(%"class.std::__cxx11::basic_string") align 8 %5, ptr noundef nonnull align 8 dereferenceable(8) %2)
          to label %6 unwind label %28

6:                                                ; preds = %3
  %7 = load ptr, ptr %4, align 8, !tbaa !10
  %8 = getelementptr inbounds nuw i8, ptr %7, i64 16
  %9 = load ptr, ptr %8, align 8
  %10 = invoke noundef zeroext i1 %9(ptr noundef nonnull align 8 dereferenceable(8) %4)
          to label %.noexc unwind label %30

.noexc:                                           ; preds = %6
  br i1 %10, label %11, label %_ZN5arrow4util12ArrowLogBaselsINSt7__cxx1112basic_stringIcSt11char_traitsIcESaIcEEEEERS1_RKT_.exit

11:                                               ; preds = %.noexc
  %12 = load ptr, ptr %4, align 8, !tbaa !10
  %13 = getelementptr inbounds nuw i8, ptr %12, i64 24
  %14 = load ptr, ptr %13, align 8
  %15 = invoke noundef nonnull align 8 dereferenceable(8) ptr %14(ptr noundef nonnull align 8 dereferenceable(8) %4)
          to label %.noexc4 unwind label %30

.noexc4:                                          ; preds = %11
  %16 = load ptr, ptr %5, align 8, !tbaa !41
  %17 = getelementptr inbounds nuw i8, ptr %5, i64 8
  %18 = load i64, ptr %17, align 8, !tbaa !42
  %19 = invoke noundef nonnull align 8 dereferenceable(8) ptr @_ZSt16__ostream_insertIcSt11char_traitsIcEERSt13basic_ostreamIT_T0_ES6_PKS3_l(ptr noundef nonnull align 8 dereferenceable(8) %15, ptr noundef %16, i64 noundef %18)
          to label %_ZN5arrow4util12ArrowLogBaselsINSt7__cxx1112basic_stringIcSt11char_traitsIcESaIcEEEEERS1_RKT_.exit unwind label %30

_ZN5arrow4util12ArrowLogBaselsINSt7__cxx1112basic_stringIcSt11char_traitsIcESaIcEEEEERS1_RKT_.exit: ; preds = %.noexc, %.noexc4
  %20 = load ptr, ptr %5, align 8, !tbaa !41
  %21 = getelementptr inbounds nuw i8, ptr %5, i64 16
  %22 = icmp eq ptr %20, %21
  br i1 %22, label %_ZNKSt7__cxx1112basic_stringIcSt11char_traitsIcESaIcEE11_M_is_localEv.exit.thread.i.i, label %_ZNKSt7__cxx1112basic_stringIcSt11char_traitsIcESaIcEE11_M_is_localEv.exit.i.i

_ZNKSt7__cxx1112basic_stringIcSt11char_traitsIcESaIcEE11_M_is_localEv.exit.thread.i.i: ; preds = %_ZN5arrow4util12ArrowLogBaselsINSt7__cxx1112basic_stringIcSt11char_traitsIcESaIcEEEEERS1_RKT_.exit
  %23 = getelementptr inbounds nuw i8, ptr %5, i64 8
  %24 = load i64, ptr %23, align 8, !tbaa !42
  %25 = icmp ult i64 %24, 16
  call void @llvm.assume(i1 %25)
  br label %_ZNSt7__cxx1112basic_stringIcSt11char_traitsIcESaIcEED2Ev.exit

_ZNKSt7__cxx1112basic_stringIcSt11char_traitsIcESaIcEE11_M_is_localEv.exit.i.i: ; preds = %_ZN5arrow4util12ArrowLogBaselsINSt7__cxx1112basic_stringIcSt11char_traitsIcESaIcEEEEERS1_RKT_.exit
  %26 = load i64, ptr %21, align 8, !tbaa !43
  %27 = add i64 %26, 1
  call void @_ZdlPvm(ptr noundef %20, i64 noundef %27) #34
  br label %_ZNSt7__cxx1112basic_stringIcSt11char_traitsIcESaIcEED2Ev.exit

_ZNSt7__cxx1112basic_stringIcSt11char_traitsIcESaIcEED2Ev.exit: ; preds = %_ZNKSt7__cxx1112basic_stringIcSt11char_traitsIcESaIcEE11_M_is_localEv.exit.thread.i.i, %_ZNKSt7__cxx1112basic_stringIcSt11char_traitsIcESaIcEE11_M_is_localEv.exit.i.i
  call void @llvm.lifetime.end.p0(i64 32, ptr nonnull %5) #32
  call void @_ZN5arrow4util8ArrowLogD1Ev(ptr noundef nonnull align 8 dereferenceable(17) %4) #32
  call void @llvm.lifetime.end.p0(i64 24, ptr nonnull %4) #32
  call void @_ZN5arrow8internal9DebugTrapEv()
  ret void

28:                                               ; preds = %3
  %29 = landingpad { ptr, i32 }
          cleanup
  br label %_ZNSt7__cxx1112basic_stringIcSt11char_traitsIcESaIcEED2Ev.exit8

30:                                               ; preds = %.noexc4, %11, %6
  %31 = landingpad { ptr, i32 }
          cleanup
  %32 = load ptr, ptr %5, align 8, !tbaa !41
  %33 = getelementptr inbounds nuw i8, ptr %5, i64 16
  %34 = icmp eq ptr %32, %33
  br i1 %34, label %_ZNKSt7__cxx1112basic_stringIcSt11char_traitsIcESaIcEE11_M_is_localEv.exit.thread.i.i7, label %_ZNKSt7__cxx1112basic_stringIcSt11char_traitsIcESaIcEE11_M_is_localEv.exit.i.i6

_ZNKSt7__cxx1112basic_stringIcSt11char_traitsIcESaIcEE11_M_is_localEv.exit.thread.i.i7: ; preds = %30
  %35 = getelementptr inbounds nuw i8, ptr %5, i64 8
  %36 = load i64, ptr %35, align 8, !tbaa !42
  %37 = icmp ult i64 %36, 16
  call void @llvm.assume(i1 %37)
  br label %_ZNSt7__cxx1112basic_stringIcSt11char_traitsIcESaIcEED2Ev.exit8

_ZNKSt7__cxx1112basic_stringIcSt11char_traitsIcESaIcEE11_M_is_localEv.exit.i.i6: ; preds = %30
  %38 = load i64, ptr %33, align 8, !tbaa !43
  %39 = add i64 %38, 1
  call void @_ZdlPvm(ptr noundef %32, i64 noundef %39) #34
  br label %_ZNSt7__cxx1112basic_stringIcSt11char_traitsIcESaIcEED2Ev.exit8

_ZNSt7__cxx1112basic_stringIcSt11char_traitsIcESaIcEED2Ev.exit8: ; preds = %_ZNKSt7__cxx1112basic_stringIcSt11char_traitsIcESaIcEE11_M_is_localEv.exit.i.i6, %_ZNKSt7__cxx1112basic_stringIcSt11char_traitsIcESaIcEE11_M_is_localEv.exit.thread.i.i7, %28
  %.pn = phi { ptr, i32 } [ %29, %28 ], [ %31, %_ZNKSt7__cxx1112basic_stringIcSt11char_traitsIcESaIcEE11_M_is_localEv.exit.thread.i.i7 ], [ %31, %_ZNKSt7__cxx1112basic_stringIcSt11char_traitsIcESaIcEE11_M_is_localEv.exit.i.i6 ]
  call void @llvm.lifetime.end.p0(i64 32, ptr nonnull %5) #32
  call void @_ZN5arrow4util8ArrowLogD1Ev(ptr noundef nonnull align 8 dereferenceable(17) %4) #32
  call void @llvm.lifetime.end.p0(i64 24, ptr nonnull %4) #32
  resume { ptr, i32 } %.pn
}